target datalayout = "e-m:e-p270:32:32-p271:32:32-p272:64:64-i64:64-i128:128-f80:128-n8:16:32:64-S128"
target triple = "x86_64-pc-linux-gnu"

%struct.DdManager = type { %struct.DdNode, ptr, ptr, ptr, ptr, ptr, ptr, ptr, i32, i32, double, double, double, i32, i32, i32, i32, i32, i32, ptr, ptr, %struct.DdSubtable, i32, i32, i32, i32, i32, i32, i32, double, i32, i32, i32, ptr, i64, double, i32, ptr, ptr, ptr, ptr, ptr, ptr, ptr, i32, ptr, ptr, ptr, ptr, ptr, ptr, i32, i32, i32, double, i32, i32, i32, i32, double, double, i32, i32, i32, i32, i32, i32, i32, i32, i32, ptr, ptr, i32, i32, i32, i32, i32, i32, ptr, ptr, ptr, ptr, ptr, ptr, ptr, ptr, i32, i64, i64, i64, i32, i64, i64, double, double, double, double, double, double, i32, ptr, ptr, i64 }
%struct.DdNode = type { i32, i32, ptr, %union.anon, i64 }
%union.anon = type { %struct.DdChildren }
%struct.DdChildren = type { ptr, ptr }
%struct.DdSubtable = type { ptr, i32, i32, i32, i32, i32, i32, i32, i32, i32, i32, i32 }
%struct.Move = type { i32, i32, i32, i32, ptr }

; Function Attrs: nounwind uwtable
define internal ptr @cuddZddSymmSifting_down(ptr noundef %0, i32 noundef %1, i32 noundef %2, i32 noundef %3) #0 {
  %5 = alloca ptr, align 8
  %6 = alloca ptr, align 8
  %7 = alloca i32, align 4
  %8 = alloca i32, align 4
  %9 = alloca i32, align 4
  %10 = alloca ptr, align 8
  %11 = alloca ptr, align 8
  %12 = alloca i32, align 4
  %13 = alloca i32, align 4
  %14 = alloca i32, align 4
  %15 = alloca i32, align 4
  %16 = alloca i32, align 4
  %17 = alloca i32, align 4
  %18 = alloca i32, align 4
  store ptr %0, ptr %6, align 8, !tbaa !3
  store i32 %1, ptr %7, align 4, !tbaa !8
  store i32 %2, ptr %8, align 4, !tbaa !8
  store i32 %3, ptr %9, align 4, !tbaa !8
  call void @llvm.lifetime.start.p0(i64 8, ptr %10) #5
  call void @llvm.lifetime.start.p0(i64 8, ptr %11) #5
  call void @llvm.lifetime.start.p0(i64 4, ptr %12) #5
  call void @llvm.lifetime.start.p0(i64 4, ptr %13) #5
  call void @llvm.lifetime.start.p0(i64 4, ptr %14) #5
  %19 = load i32, ptr %9, align 4, !tbaa !8
  store i32 %19, ptr %14, align 4, !tbaa !8
  call void @llvm.lifetime.start.p0(i64 4, ptr %15) #5
  call void @llvm.lifetime.start.p0(i64 4, ptr %16) #5
  call void @llvm.lifetime.start.p0(i64 4, ptr %17) #5
  store ptr null, ptr %10, align 8, !tbaa !56
  %20 = load ptr, ptr %6, align 8, !tbaa !3
  %21 = load i32, ptr %7, align 4, !tbaa !8
  %22 = call i32 @cuddZddNextHigh(ptr noundef %20, i32 noundef %21)
  store i32 %22, ptr %12, align 4, !tbaa !8
  br label %23

23:                                               ; preds = %212, %4
  %24 = load i32, ptr %12, align 4, !tbaa !8
  %25 = load i32, ptr %8, align 4, !tbaa !8
  %26 = icmp sle i32 %24, %25
  br i1 %26, label %27, label %217

27:                                               ; preds = %23
  %28 = load ptr, ptr %6, align 8, !tbaa !3
  %29 = getelementptr inbounds nuw %struct.DdManager, ptr %28, i32 0, i32 20
  %30 = load ptr, ptr %29, align 8, !tbaa !10
  %31 = load i32, ptr %12, align 4, !tbaa !8
  %32 = sext i32 %31 to i64
  %33 = getelementptr inbounds %struct.DdSubtable, ptr %30, i64 %32
  %34 = getelementptr inbounds nuw %struct.DdSubtable, ptr %33, i32 0, i32 6
  %35 = load i32, ptr %34, align 4, !tbaa !27
  store i32 %35, ptr %17, align 4, !tbaa !8
  br label %36

36:                                               ; preds = %47, %27
  %37 = load ptr, ptr %6, align 8, !tbaa !3
  %38 = getelementptr inbounds nuw %struct.DdManager, ptr %37, i32 0, i32 20
  %39 = load ptr, ptr %38, align 8, !tbaa !10
  %40 = load i32, ptr %17, align 4, !tbaa !8
  %41 = sext i32 %40 to i64
  %42 = getelementptr inbounds %struct.DdSubtable, ptr %39, i64 %41
  %43 = getelementptr inbounds nuw %struct.DdSubtable, ptr %42, i32 0, i32 6
  %44 = load i32, ptr %43, align 4, !tbaa !27
  %45 = load i32, ptr %12, align 4, !tbaa !8
  %46 = icmp ne i32 %44, %45
  br i1 %46, label %47, label %56

47:                                               ; preds = %36
  %48 = load ptr, ptr %6, align 8, !tbaa !3
  %49 = getelementptr inbounds nuw %struct.DdManager, ptr %48, i32 0, i32 20
  %50 = load ptr, ptr %49, align 8, !tbaa !10
  %51 = load i32, ptr %17, align 4, !tbaa !8
  %52 = sext i32 %51 to i64
  %53 = getelementptr inbounds %struct.DdSubtable, ptr %50, i64 %52
  %54 = getelementptr inbounds nuw %struct.DdSubtable, ptr %53, i32 0, i32 6
  %55 = load i32, ptr %54, align 4, !tbaa !27
  store i32 %55, ptr %17, align 4, !tbaa !8
  br label %36, !llvm.loop !109

56:                                               ; preds = %36
  %57 = load ptr, ptr %6, align 8, !tbaa !3
  %58 = load i32, ptr %7, align 4, !tbaa !8
  %59 = load i32, ptr %12, align 4, !tbaa !8
  %60 = call i32 @cuddZddSymmCheck(ptr noundef %57, i32 noundef %58, i32 noundef %59)
  %61 = icmp ne i32 %60, 0
  br i1 %61, label %62, label %116

62:                                               ; preds = %56
  %63 = load ptr, ptr %6, align 8, !tbaa !3
  %64 = getelementptr inbounds nuw %struct.DdManager, ptr %63, i32 0, i32 20
  %65 = load ptr, ptr %64, align 8, !tbaa !10
  %66 = load i32, ptr %7, align 4, !tbaa !8
  %67 = sext i32 %66 to i64
  %68 = getelementptr inbounds %struct.DdSubtable, ptr %65, i64 %67
  %69 = getelementptr inbounds nuw %struct.DdSubtable, ptr %68, i32 0, i32 6
  %70 = load i32, ptr %69, align 4, !tbaa !27
  store i32 %70, ptr %16, align 4, !tbaa !8
  %71 = load i32, ptr %12, align 4, !tbaa !8
  %72 = load ptr, ptr %6, align 8, !tbaa !3
  %73 = getelementptr inbounds nuw %struct.DdManager, ptr %72, i32 0, i32 20
  %74 = load ptr, ptr %73, align 8, !tbaa !10
  %75 = load i32, ptr %7, align 4, !tbaa !8
  %76 = sext i32 %75 to i64
  %77 = getelementptr inbounds %struct.DdSubtable, ptr %74, i64 %76
  %78 = getelementptr inbounds nuw %struct.DdSubtable, ptr %77, i32 0, i32 6
  store i32 %71, ptr %78, align 4, !tbaa !27
  %79 = load ptr, ptr %6, align 8, !tbaa !3
  %80 = getelementptr inbounds nuw %struct.DdManager, ptr %79, i32 0, i32 20
  %81 = load ptr, ptr %80, align 8, !tbaa !10
  %82 = load i32, ptr %12, align 4, !tbaa !8
  %83 = sext i32 %82 to i64
  %84 = getelementptr inbounds %struct.DdSubtable, ptr %81, i64 %83
  %85 = getelementptr inbounds nuw %struct.DdSubtable, ptr %84, i32 0, i32 6
  %86 = load i32, ptr %85, align 4, !tbaa !27
  store i32 %86, ptr %15, align 4, !tbaa !8
  br label %87

87:                                               ; preds = %98, %62
  %88 = load ptr, ptr %6, align 8, !tbaa !3
  %89 = getelementptr inbounds nuw %struct.DdManager, ptr %88, i32 0, i32 20
  %90 = load ptr, ptr %89, align 8, !tbaa !10
  %91 = load i32, ptr %15, align 4, !tbaa !8
  %92 = sext i32 %91 to i64
  %93 = getelementptr inbounds %struct.DdSubtable, ptr %90, i64 %92
  %94 = getelementptr inbounds nuw %struct.DdSubtable, ptr %93, i32 0, i32 6
  %95 = load i32, ptr %94, align 4, !tbaa !27
  %96 = load i32, ptr %12, align 4, !tbaa !8
  %97 = icmp ne i32 %95, %96
  br i1 %97, label %98, label %107

98:                                               ; preds = %87
  %99 = load ptr, ptr %6, align 8, !tbaa !3
  %100 = getelementptr inbounds nuw %struct.DdManager, ptr %99, i32 0, i32 20
  %101 = load ptr, ptr %100, align 8, !tbaa !10
  %102 = load i32, ptr %15, align 4, !tbaa !8
  %103 = sext i32 %102 to i64
  %104 = getelementptr inbounds %struct.DdSubtable, ptr %101, i64 %103
  %105 = getelementptr inbounds nuw %struct.DdSubtable, ptr %104, i32 0, i32 6
  %106 = load i32, ptr %105, align 4, !tbaa !27
  store i32 %106, ptr %15, align 4, !tbaa !8
  br label %87, !llvm.loop !110

107:                                              ; preds = %87
  %108 = load i32, ptr %16, align 4, !tbaa !8
  %109 = load ptr, ptr %6, align 8, !tbaa !3
  %110 = getelementptr inbounds nuw %struct.DdManager, ptr %109, i32 0, i32 20
  %111 = load ptr, ptr %110, align 8, !tbaa !10
  %112 = load i32, ptr %15, align 4, !tbaa !8
  %113 = sext i32 %112 to i64
  %114 = getelementptr inbounds %struct.DdSubtable, ptr %111, i64 %113
  %115 = getelementptr inbounds nuw %struct.DdSubtable, ptr %114, i32 0, i32 6
  store i32 %108, ptr %115, align 4, !tbaa !27
  br label %212

116:                                              ; preds = %56
  %117 = load ptr, ptr %6, align 8, !tbaa !3
  %118 = getelementptr inbounds nuw %struct.DdManager, ptr %117, i32 0, i32 20
  %119 = load ptr, ptr %118, align 8, !tbaa !10
  %120 = load i32, ptr %7, align 4, !tbaa !8
  %121 = sext i32 %120 to i64
  %122 = getelementptr inbounds %struct.DdSubtable, ptr %119, i64 %121
  %123 = getelementptr inbounds nuw %struct.DdSubtable, ptr %122, i32 0, i32 6
  %124 = load i32, ptr %123, align 4, !tbaa !27
  %125 = load i32, ptr %7, align 4, !tbaa !8
  %126 = icmp eq i32 %124, %125
  br i1 %126, label %127, label %188

127:                                              ; preds = %116
  %128 = load ptr, ptr %6, align 8, !tbaa !3
  %129 = getelementptr inbounds nuw %struct.DdManager, ptr %128, i32 0, i32 20
  %130 = load ptr, ptr %129, align 8, !tbaa !10
  %131 = load i32, ptr %12, align 4, !tbaa !8
  %132 = sext i32 %131 to i64
  %133 = getelementptr inbounds %struct.DdSubtable, ptr %130, i64 %132
  %134 = getelementptr inbounds nuw %struct.DdSubtable, ptr %133, i32 0, i32 6
  %135 = load i32, ptr %134, align 4, !tbaa !27
  %136 = load i32, ptr %12, align 4, !tbaa !8
  %137 = icmp eq i32 %135, %136
  br i1 %137, label %138, label %188

138:                                              ; preds = %127
  %139 = load ptr, ptr %6, align 8, !tbaa !3
  %140 = load i32, ptr %7, align 4, !tbaa !8
  %141 = load i32, ptr %12, align 4, !tbaa !8
  %142 = call i32 @cuddZddSwapInPlace(ptr noundef %139, i32 noundef %140, i32 noundef %141)
  store i32 %142, ptr %13, align 4, !tbaa !8
  %143 = load i32, ptr %13, align 4, !tbaa !8
  %144 = icmp eq i32 %143, 0
  br i1 %144, label %145, label %146

145:                                              ; preds = %138
  br label %219

146:                                              ; preds = %138
  %147 = load ptr, ptr %6, align 8, !tbaa !3
  %148 = call ptr @cuddDynamicAllocNode(ptr noundef %147)
  store ptr %148, ptr %11, align 8, !tbaa !56
  %149 = load ptr, ptr %11, align 8, !tbaa !56
  %150 = icmp eq ptr %149, null
  br i1 %150, label %151, label %152

151:                                              ; preds = %146
  br label %219

152:                                              ; preds = %146
  %153 = load i32, ptr %7, align 4, !tbaa !8
  %154 = load ptr, ptr %11, align 8, !tbaa !56
  %155 = getelementptr inbounds nuw %struct.Move, ptr %154, i32 0, i32 0
  store i32 %153, ptr %155, align 8, !tbaa !67
  %156 = load i32, ptr %12, align 4, !tbaa !8
  %157 = load ptr, ptr %11, align 8, !tbaa !56
  %158 = getelementptr inbounds nuw %struct.Move, ptr %157, i32 0, i32 1
  store i32 %156, ptr %158, align 4, !tbaa !62
  %159 = load i32, ptr %13, align 4, !tbaa !8
  %160 = load ptr, ptr %11, align 8, !tbaa !56
  %161 = getelementptr inbounds nuw %struct.Move, ptr %160, i32 0, i32 3
  store i32 %159, ptr %161, align 4, !tbaa !111
  %162 = load ptr, ptr %10, align 8, !tbaa !56
  %163 = load ptr, ptr %11, align 8, !tbaa !56
  %164 = getelementptr inbounds nuw %struct.Move, ptr %163, i32 0, i32 4
  store ptr %162, ptr %164, align 8, !tbaa !72
  %165 = load ptr, ptr %11, align 8, !tbaa !56
  store ptr %165, ptr %10, align 8, !tbaa !56
  %166 = load i32, ptr %13, align 4, !tbaa !8
  %167 = sitofp i32 %166 to double
  %168 = load i32, ptr %14, align 4, !tbaa !8
  %169 = sitofp i32 %168 to double
  %170 = load ptr, ptr %6, align 8, !tbaa !3
  %171 = getelementptr inbounds nuw %struct.DdManager, ptr %170, i32 0, i32 59
  %172 = load double, ptr %171, align 8, !tbaa !112
  %173 = fmul double %169, %172
  %174 = fcmp ogt double %167, %173
  br i1 %174, label %175, label %177

175:                                              ; preds = %152
  %176 = load ptr, ptr %10, align 8, !tbaa !56
  store ptr %176, ptr %5, align 8
  store i32 1, ptr %18, align 4
  br label %239

177:                                              ; preds = %152
  %178 = load i32, ptr %13, align 4, !tbaa !8
  %179 = load i32, ptr %14, align 4, !tbaa !8
  %180 = icmp slt i32 %178, %179
  br i1 %180, label %181, label %183

181:                                              ; preds = %177
  %182 = load i32, ptr %13, align 4, !tbaa !8
  store i32 %182, ptr %14, align 4, !tbaa !8
  br label %183

183:                                              ; preds = %181, %177
  %184 = load i32, ptr %12, align 4, !tbaa !8
  store i32 %184, ptr %7, align 4, !tbaa !8
  %185 = load ptr, ptr %6, align 8, !tbaa !3
  %186 = load i32, ptr %7, align 4, !tbaa !8
  %187 = call i32 @cuddZddNextHigh(ptr noundef %185, i32 noundef %186)
  store i32 %187, ptr %12, align 4, !tbaa !8
  br label %211

188:                                              ; preds = %127, %116
  %189 = load ptr, ptr %6, align 8, !tbaa !3
  %190 = load i32, ptr %7, align 4, !tbaa !8
  %191 = load i32, ptr %12, align 4, !tbaa !8
  %192 = call i32 @zdd_group_move(ptr noundef %189, i32 noundef %190, i32 noundef %191, ptr noundef %10)
  store i32 %192, ptr %13, align 4, !tbaa !8
  %193 = load i32, ptr %13, align 4, !tbaa !8
  %194 = sitofp i32 %193 to double
  %195 = load i32, ptr %14, align 4, !tbaa !8
  %196 = sitofp i32 %195 to double
  %197 = load ptr, ptr %6, align 8, !tbaa !3
  %198 = getelementptr inbounds nuw %struct.DdManager, ptr %197, i32 0, i32 59
  %199 = load double, ptr %198, align 8, !tbaa !112
  %200 = fmul double %196, %199
  %201 = fcmp ogt double %194, %200
  br i1 %201, label %202, label %204

202:                                              ; preds = %188
  %203 = load ptr, ptr %10, align 8, !tbaa !56
  store ptr %203, ptr %5, align 8
  store i32 1, ptr %18, align 4
  br label %239

204:                                              ; preds = %188
  %205 = load i32, ptr %13, align 4, !tbaa !8
  %206 = load i32, ptr %14, align 4, !tbaa !8
  %207 = icmp slt i32 %205, %206
  br i1 %207, label %208, label %210

208:                                              ; preds = %204
  %209 = load i32, ptr %13, align 4, !tbaa !8
  store i32 %209, ptr %14, align 4, !tbaa !8
  br label %210

210:                                              ; preds = %208, %204
  br label %211

211:                                              ; preds = %210, %183
  br label %212

212:                                              ; preds = %211, %107
  %213 = load i32, ptr %17, align 4, !tbaa !8
  store i32 %213, ptr %7, align 4, !tbaa !8
  %214 = load ptr, ptr %6, align 8, !tbaa !3
  %215 = load i32, ptr %7, align 4, !tbaa !8
  %216 = call i32 @cuddZddNextHigh(ptr noundef %214, i32 noundef %215)
  store i32 %216, ptr %12, align 4, !tbaa !8
  br label %23, !llvm.loop !113

217:                                              ; preds = %23
  %218 = load ptr, ptr %10, align 8, !tbaa !56
  store ptr %218, ptr %5, align 8
  store i32 1, ptr %18, align 4
  br label %239

219:                                              ; preds = %151, %145
  br label %220

220:                                              ; preds = %223, %219
  %221 = load ptr, ptr %10, align 8, !tbaa !56
  %222 = icmp ne ptr %221, null
  br i1 %222, label %223, label %238

223:                                              ; preds = %220
  %224 = load ptr, ptr %10, align 8, !tbaa !56
  %225 = getelementptr inbounds nuw %struct.Move, ptr %224, i32 0, i32 4
  %226 = load ptr, ptr %225, align 8, !tbaa !72
  store ptr %226, ptr %11, align 8, !tbaa !56
  %227 = load ptr, ptr %10, align 8, !tbaa !56
  %228 = getelementptr inbounds nuw %struct.DdNode, ptr %227, i32 0, i32 1
  store i32 0, ptr %228, align 4, !tbaa !42
  %229 = load ptr, ptr %6, align 8, !tbaa !3
  %230 = getelementptr inbounds nuw %struct.DdManager, ptr %229, i32 0, i32 48
  %231 = load ptr, ptr %230, align 8, !tbaa !73
  %232 = load ptr, ptr %10, align 8, !tbaa !56
  %233 = getelementptr inbounds nuw %struct.DdNode, ptr %232, i32 0, i32 2
  store ptr %231, ptr %233, align 8, !tbaa !39
  %234 = load ptr, ptr %10, align 8, !tbaa !56
  %235 = load ptr, ptr %6, align 8, !tbaa !3
  %236 = getelementptr inbounds nuw %struct.DdManager, ptr %235, i32 0, i32 48
  store ptr %234, ptr %236, align 8, !tbaa !73
  %237 = load ptr, ptr %11, align 8, !tbaa !56
  store ptr %237, ptr %10, align 8, !tbaa !56
  br label %220, !llvm.loop !114

238:                                              ; preds = %220
  store ptr inttoptr (i64 1 to ptr), ptr %5, align 8
  store i32 1, ptr %18, align 4
  br label %239

239:                                              ; preds = %238, %217, %202, %175
  call void @llvm.lifetime.end.p0(i64 4, ptr %17) #5
  call void @llvm.lifetime.end.p0(i64 4, ptr %16) #5
  call void @llvm.lifetime.end.p0(i64 4, ptr %15) #5
  call void @llvm.lifetime.end.p0(i64 4, ptr %14) #5
  call void @llvm.lifetime.end.p0(i64 4, ptr %13) #5
  call void @llvm.lifetime.end.p0(i64 4, ptr %12) #5
  call void @llvm.lifetime.end.p0(i64 8, ptr %11) #5
  call void @llvm.lifetime.end.p0(i64 8, ptr %10) #5
  %240 = load ptr, ptr %5, align 8
  ret ptr %240
}