; Function Attrs: nounwind uwtable
define internal fastcc ptr @cuddZddSymmSifting_down(ptr noundef %0, i32 noundef %1, i32 noundef %2, i32 noundef %3) unnamed_addr #4 {
  %5 = alloca ptr, align 8
  call void @llvm.lifetime.start.p0(i64 8, ptr nonnull %5) #11
  store ptr null, ptr %5, align 8, !tbaa !102
  %6 = tail call i32 @cuddZddNextHigh(ptr noundef %0, i32 noundef %1) #11
  %.not92 = icmp sgt i32 %6, %2
  br i1 %.not92, label %.loopexit90, label %.lr.ph

.lr.ph:                                           ; preds = %4
  %7 = getelementptr inbounds nuw i8, ptr %0, i64 160
  %8 = getelementptr inbounds nuw i8, ptr %0, i64 464
  br label %9

9:                                                ; preds = %.lr.ph, %65
  %.07695 = phi i32 [ %3, %.lr.ph ], [ %.1, %65 ]
  %.07794 = phi i32 [ %6, %.lr.ph ], [ %66, %65 ]
  %.07893 = phi i32 [ %1, %.lr.ph ], [ %.0, %65 ]
  %10 = load ptr, ptr %7, align 8, !tbaa !3
  %11 = sext i32 %.07794 to i64
  %12 = getelementptr inbounds %struct.DdSubtable, ptr %10, i64 %11, i32 6
  %13 = load i32, ptr %12, align 4, !tbaa !24
  br label %14

14:                                               ; preds = %14, %9
  %.0 = phi i32 [ %13, %9 ], [ %17, %14 ]
  %15 = sext i32 %.0 to i64
  %16 = getelementptr inbounds %struct.DdSubtable, ptr %10, i64 %15, i32 6
  %17 = load i32, ptr %16, align 4, !tbaa !24
  %.not85 = icmp eq i32 %17, %.07794
  br i1 %.not85, label %18, label %14, !llvm.loop !103

18:                                               ; preds = %14
  %19 = tail call i32 @cuddZddSymmCheck(ptr noundef %0, i32 noundef %.07893, i32 noundef %.07794)
  %.not86 = icmp eq i32 %19, 0
  %20 = load ptr, ptr %7, align 8, !tbaa !3
  %21 = sext i32 %.07893 to i64
  %22 = getelementptr inbounds %struct.DdSubtable, ptr %20, i64 %21, i32 6
  %23 = load i32, ptr %22, align 4, !tbaa !24
  br i1 %.not86, label %32, label %24

24:                                               ; preds = %18
  store i32 %.07794, ptr %22, align 4, !tbaa !24
  %25 = getelementptr inbounds %struct.DdSubtable, ptr %20, i64 %11, i32 6
  %26 = load i32, ptr %25, align 4, !tbaa !24
  br label %27

27:                                               ; preds = %27, %24
  %.075 = phi i32 [ %26, %24 ], [ %30, %27 ]
  %28 = sext i32 %.075 to i64
  %29 = getelementptr inbounds %struct.DdSubtable, ptr %20, i64 %28, i32 6
  %30 = load i32, ptr %29, align 4, !tbaa !24
  %.not88 = icmp eq i32 %30, %.07794
  br i1 %.not88, label %31, label %27, !llvm.loop !104

31:                                               ; preds = %27
  store i32 %23, ptr %29, align 4, !tbaa !24
  br label %65

32:                                               ; preds = %18
  %33 = icmp eq i32 %23, %.07893
  br i1 %33, label %34, label %55

34:                                               ; preds = %32
  %35 = getelementptr inbounds %struct.DdSubtable, ptr %20, i64 %11, i32 6
  %36 = load i32, ptr %35, align 4, !tbaa !24
  %37 = icmp eq i32 %36, %.07794
  br i1 %37, label %38, label %55

38:                                               ; preds = %34
  %39 = tail call i32 @cuddZddSwapInPlace(ptr noundef nonnull %0, i32 noundef %.07893, i32 noundef %.07794) #11
  %40 = icmp eq i32 %39, 0
  br i1 %40, label %._crit_edge105, label %41

._crit_edge105:                                   ; preds = %38
  %.pr.pre = load ptr, ptr %5, align 8, !tbaa !102
  br label %split

41:                                               ; preds = %38
  %42 = tail call ptr @cuddDynamicAllocNode(ptr noundef nonnull %0) #11
  %43 = icmp eq ptr %42, null
  %.pr.pre106 = load ptr, ptr %5, align 8, !tbaa !102
  br i1 %43, label %split, label %44

44:                                               ; preds = %41
  store i32 %.07893, ptr %42, align 8, !tbaa !65
  %45 = getelementptr inbounds nuw i8, ptr %42, i64 4
  store i32 %.07794, ptr %45, align 4, !tbaa !59
  %46 = getelementptr inbounds nuw i8, ptr %42, i64 12
  store i32 %39, ptr %46, align 4, !tbaa !105
  %47 = getelementptr inbounds nuw i8, ptr %42, i64 16
  store ptr %.pr.pre106, ptr %47, align 8, !tbaa !71
  store ptr %42, ptr %5, align 8, !tbaa !102
  %48 = sitofp i32 %39 to double
  %49 = sitofp i32 %.07695 to double
  %50 = load double, ptr %8, align 8, !tbaa !106
  %51 = fmul double %50, %49
  %52 = fcmp olt double %51, %48
  br i1 %52, label %.loopexit90, label %53

53:                                               ; preds = %44
  %spec.select = tail call i32 @llvm.smin.i32(i32 %39, i32 %.07695)
  %54 = tail call i32 @cuddZddNextHigh(ptr noundef nonnull %0, i32 noundef %.07794) #11
  br label %65

55:                                               ; preds = %34, %32
  %56 = call fastcc i32 @zdd_group_move(ptr noundef nonnull %0, i32 noundef %.07893, i32 noundef %.07794, ptr noundef %5)
  %57 = sitofp i32 %56 to double
  %58 = sitofp i32 %.07695 to double
  %59 = load double, ptr %8, align 8, !tbaa !106
  %60 = fmul double %59, %58
  %61 = fcmp olt double %60, %57
  br i1 %61, label %62, label %64

62:                                               ; preds = %55
  %63 = load ptr, ptr %5, align 8, !tbaa !102
  br label %.loopexit90

64:                                               ; preds = %55
  %spec.select89 = tail call i32 @llvm.smin.i32(i32 %56, i32 %.07695)
  br label %65

65:                                               ; preds = %64, %53, %31
  %.1 = phi i32 [ %.07695, %31 ], [ %spec.select, %53 ], [ %spec.select89, %64 ]
  %66 = tail call i32 @cuddZddNextHigh(ptr noundef %0, i32 noundef %.0) #11
  %.not = icmp sgt i32 %66, %2
  br i1 %.not, label %._crit_edge.loopexit, label %9, !llvm.loop !107

._crit_edge.loopexit:                             ; preds = %65
  %.pre = load ptr, ptr %5, align 8, !tbaa !102
  br label %.loopexit90

split:                                            ; preds = %41, %._crit_edge105
  %.pr = phi ptr [ %.pr.pre, %._crit_edge105 ], [ %.pr.pre106, %41 ]
  %.not8797 = icmp eq ptr %.pr, null
  br i1 %.not8797, label %.loopexit90, label %.lr.ph99

.lr.ph99:                                         ; preds = %split
  %67 = getelementptr inbounds nuw i8, ptr %0, i64 400
  %.promoted100 = load ptr, ptr %67, align 8, !tbaa !70
  br label %68

68:                                               ; preds = %.lr.ph99, %68
  %69 = phi ptr [ %.promoted100, %.lr.ph99 ], [ %70, %68 ]
  %70 = phi ptr [ %.pr, %.lr.ph99 ], [ %72, %68 ]
  %71 = getelementptr inbounds nuw i8, ptr %70, i64 16
  %72 = load ptr, ptr %71, align 8, !tbaa !71
  %73 = getelementptr inbounds nuw i8, ptr %70, i64 4
  store i32 0, ptr %73, align 4, !tbaa !40
  %74 = getelementptr inbounds nuw i8, ptr %70, i64 8
  store ptr %69, ptr %74, align 8, !tbaa !72
  %.not87 = icmp eq ptr %72, null
  br i1 %.not87, label %..loopexit_crit_edge, label %68, !llvm.loop !108

..loopexit_crit_edge:                             ; preds = %68
  store ptr %70, ptr %67, align 8, !tbaa !70
  br label %.loopexit90

.loopexit90:                                      ; preds = %44, %split, %..loopexit_crit_edge, %4, %._crit_edge.loopexit, %62
  %.074 = phi ptr [ %63, %62 ], [ %.pre, %._crit_edge.loopexit ], [ null, %4 ], [ inttoptr (i64 1 to ptr), %..loopexit_crit_edge ], [ inttoptr (i64 1 to ptr), %split ], [ %42, %44 ]
  call void @llvm.lifetime.end.p0(i64 8, ptr nonnull %5) #11
  ret ptr %.074
}